; Function Attrs: mustprogress uwtable
define noundef zeroext i1 @_ZN3zmq7dgram_t7xhas_inEv(ptr nocapture noundef nonnull readonly align 8 dereferenceable(1848) %this) unnamed_addr #0 align 2 {
entry:
  %_pipe = getelementptr inbounds i8, ptr %this, i64 1832
  %0 = load ptr, ptr %_pipe, align 8
  %tobool.not = icmp eq ptr %0, null
  br i1 %tobool.not, label %return, label %if.end

if.end:                                           ; preds = %entry
  %call = tail call noundef zeroext i1 @_ZN3zmq6pipe_t10check_readEv(ptr noundef nonnull align 8 dereferenceable(328) %0)
  br label %return

return:                                           ; preds = %entry, %if.end
  %retval.0 = phi i1 [ %call, %if.end ], [ false, %entry ]
  ret i1 %retval.0
}